target datalayout = "e-m:e-p270:32:32-p271:32:32-p272:64:64-i64:64-i128:128-f80:128-n8:16:32:64-S128"
target triple = "x86_64-pc-linux-gnu"

@plugin_inited = internal global i32 0, align 4
@g_context = internal global ptr null, align 8

; Function Attrs: nounwind uwtable
define dso_local i32 @preempt_g_fini() #0 {
  %1 = alloca i32, align 4
  call void @llvm.lifetime.start.p0(i64 4, ptr %1) #6
  store i32 0, ptr %1, align 4
  %2 = load ptr, ptr @g_context, align 8
  %3 = icmp ne ptr %2, null
  br i1 %3, label %4, label %7

4:                                                ; preds = %0
  %5 = load ptr, ptr @g_context, align 8
  %6 = call i32 @plugin_context_destroy(ptr noundef %5)
  store i32 %6, ptr %1, align 4
  store ptr null, ptr @g_context, align 8
  br label %7

7:                                                ; preds = %4, %0
  store i32 0, ptr @plugin_inited, align 4
  %8 = load i32, ptr %1, align 4
  call void @llvm.lifetime.end.p0(i64 4, ptr %1) #6
  ret i32 %8
}